; Function Attrs: nounwind uwtable
define internal ptr @sys_call_tracing(ptr readnone captures(none) %0, ptr noundef readonly captures(none) %1, i64 noundef %2) #0 {
  %or.cond = icmp eq i64 %2, 2
  br i1 %or.cond, label %6, label %4

4:                                                ; preds = %3
  %5 = tail call i32 @_PyArg_CheckPositional(ptr noundef nonnull @.str.83, i64 noundef %2, i64 noundef 2, i64 noundef 2) #15
  %.not = icmp eq i32 %5, 0
  br i1 %.not, label %16, label %6

6:                                                ; preds = %3, %4
  %7 = getelementptr i8, ptr %1, i64 8
  %8 = load ptr, ptr %7, align 8, !tbaa !93
  %9 = getelementptr i8, ptr %8, i64 8
  %.val = load ptr, ptr %9, align 8, !tbaa !96
  %10 = getelementptr i8, ptr %.val, i64 168
  %.val12 = load i64, ptr %10, align 8, !tbaa !185
  %11 = and i64 %.val12, 67108864
  %.not11 = icmp eq i64 %11, 0
  br i1 %.not11, label %12, label %13

12:                                               ; preds = %6
  tail call void @_PyArg_BadArgument(ptr noundef nonnull @.str.83, ptr noundef nonnull @.str.129, ptr noundef nonnull @.str.130, ptr noundef nonnull %8) #15
  br label %16

13:                                               ; preds = %6
  %14 = load ptr, ptr %1, align 8, !tbaa !93
  %15 = tail call ptr @_PyEval_CallTracing(ptr noundef %14, ptr noundef nonnull %8) #15
  br label %16

16:                                               ; preds = %4, %13, %12
  %.0 = phi ptr [ %15, %13 ], [ null, %12 ], [ null, %4 ]
  ret ptr %.0
}